target datalayout = "e-m:e-p270:32:32-p271:32:32-p272:64:64-i64:64-i128:128-f80:128-n8:16:32:64-S128"
target triple = "x86_64-unknown-linux-gnu"

; Function Attrs: mustprogress nounwind uwtable
define hidden noundef i32 @_Z22countTrailingNullBytesPKhi(ptr noundef %StringBytes, i32 noundef %Length) #0 {
entry:
  %StringBytes.addr = alloca ptr, align 8
  %Length.addr = alloca i32, align 4
  %End = alloca ptr, align 8
  %Count = alloca i32, align 4
  store ptr %StringBytes, ptr %StringBytes.addr, align 8
  store i32 %Length, ptr %Length.addr, align 4
  %0 = load ptr, ptr %StringBytes.addr, align 8
  %1 = load i32, ptr %Length.addr, align 4
  %idx.ext = sext i32 %1 to i64
  %add.ptr = getelementptr inbounds i8, ptr %0, i64 %idx.ext
  %add.ptr1 = getelementptr inbounds i8, ptr %add.ptr, i64 -1
  store ptr %add.ptr1, ptr %End, align 8
  store i32 0, ptr %Count, align 4
  br label %while.cond

while.cond:                                       ; preds = %while.body, %entry
  %2 = load i32, ptr %Length.addr, align 4
  %cmp = icmp sgt i32 %2, 0
  br i1 %cmp, label %land.rhs, label %land.end

land.rhs:                                         ; preds = %while.cond
  %3 = load ptr, ptr %End, align 8
  %4 = load i8, ptr %3, align 1
  %conv = zext i8 %4 to i32
  %cmp2 = icmp eq i32 %conv, 0
  br label %land.end

land.end:                                         ; preds = %land.rhs, %while.cond
  %5 = phi i1 [ false, %while.cond ], [ %cmp2, %land.rhs ]
  br i1 %5, label %while.body, label %while.end

while.body:                                       ; preds = %land.end
  %6 = load i32, ptr %Length.addr, align 4
  %dec = add nsw i32 %6, -1
  store i32 %dec, ptr %Length.addr, align 4
  %7 = load ptr, ptr %End, align 8
  %incdec.ptr = getelementptr inbounds i8, ptr %7, i32 -1
  store ptr %incdec.ptr, ptr %End, align 8
  %8 = load i32, ptr %Count, align 4
  %inc = add i32 %8, 1
  store i32 %inc, ptr %Count, align 4
  br label %while.cond, !llvm.loop !4

while.end:                                        ; preds = %land.end
  %9 = load i32, ptr %Count, align 4
  ret i32 %9
}