; Function Attrs: mustprogress nofree norecurse nosync nounwind willreturn memory(read, inaccessiblemem: none) uwtable
define hidden noundef i32 @_Z22countTrailingNullBytesPKhi(ptr nocapture noundef readonly %StringBytes, i32 noundef %Length) local_unnamed_addr #1 {
entry:
  %cmp6 = icmp sgt i32 %Length, 0
  br i1 %cmp6, label %land.rhs.preheader, label %while.end

land.rhs.preheader:                               ; preds = %entry
  %idx.ext = zext nneg i32 %Length to i64
  %add.ptr = getelementptr inbounds i8, ptr %StringBytes, i64 %idx.ext
  br label %land.rhs

land.rhs:                                         ; preds = %land.rhs.preheader, %while.body
  %End.09.pn = phi ptr [ %End.09, %while.body ], [ %add.ptr, %land.rhs.preheader ]
  %Count.08 = phi i32 [ %inc, %while.body ], [ 0, %land.rhs.preheader ]
  %End.09 = getelementptr inbounds i8, ptr %End.09.pn, i64 -1
  %0 = load i8, ptr %End.09, align 1
  %cmp2 = icmp eq i8 %0, 0
  br i1 %cmp2, label %while.body, label %while.end

while.body:                                       ; preds = %land.rhs
  %inc = add nuw nsw i32 %Count.08, 1
  %exitcond.not = icmp eq i32 %inc, %Length
  br i1 %exitcond.not, label %while.end, label %land.rhs, !llvm.loop !4

while.end:                                        ; preds = %land.rhs, %while.body, %entry
  %Count.0.lcssa = phi i32 [ 0, %entry ], [ %Length, %while.body ], [ %Count.08, %land.rhs ]
  ret i32 %Count.0.lcssa
}